target datalayout = "e-m:e-p270:32:32-p271:32:32-p272:64:64-i64:64-i128:128-f80:128-n8:16:32:64-S128"
target triple = "x86_64-pc-linux-gnu"

%struct.asn1_object_st = type { ptr, ptr, i32, i32, ptr, i32 }

; Function Attrs: nounwind uwtable
define ptr @OBJ_nid2sn(i32 noundef %0) #0 {
  %2 = alloca i32, align 4
  %3 = alloca ptr, align 8
  store i32 %0, ptr %2, align 4, !tbaa !21
  call void @llvm.lifetime.start.p0(i64 8, ptr %3) #6
  %4 = load i32, ptr %2, align 4, !tbaa !21
  %5 = call ptr @OBJ_nid2obj(i32 noundef %4)
  store ptr %5, ptr %3, align 8, !tbaa !23
  %6 = load ptr, ptr %3, align 8, !tbaa !23
  %7 = icmp eq ptr %6, null
  br i1 %7, label %8, label %9

8:                                                ; preds = %1
  br label %13

9:                                                ; preds = %1
  %10 = load ptr, ptr %3, align 8, !tbaa !23
  %11 = getelementptr inbounds nuw %struct.asn1_object_st, ptr %10, i32 0, i32 0
  %12 = load ptr, ptr %11, align 8, !tbaa !24
  br label %13

13:                                               ; preds = %9, %8
  %14 = phi ptr [ null, %8 ], [ %12, %9 ]
  call void @llvm.lifetime.end.p0(i64 8, ptr %3) #6
  ret ptr %14
}