; Function Attrs: nounwind uwtable
define ptr @OBJ_nid2sn(i32 noundef %0) local_unnamed_addr #0 {
  %2 = tail call ptr @OBJ_nid2obj(i32 noundef %0)
  %3 = icmp eq ptr %2, null
  br i1 %3, label %6, label %4

4:                                                ; preds = %1
  %5 = load ptr, ptr %2, align 8, !tbaa !18
  br label %6

6:                                                ; preds = %1, %4
  %7 = phi ptr [ %5, %4 ], [ null, %1 ]
  ret ptr %7
}